; Function Attrs: mustprogress uwtable
define noundef zeroext i1 @_ZNK6google8protobuf8compiler20CommandLineInterface28EnforceProto3OptionalSupportERKNSt7__cxx1112basic_stringIcSt11char_traitsIcESaIcEEEmRKSt6vectorIPKNS0_14FileDescriptorESaISE_EE(ptr nocapture nonnull readnone align 8 %this, ptr noundef nonnull align 8 dereferenceable(32) %codegen_name, i64 noundef %supported_features, ptr nocapture noundef nonnull readonly align 8 dereferenceable(24) %parsed_files) local_unnamed_addr #5 align 2 {
entry:
  %and = and i64 %supported_features, 1
  %tobool.not = icmp eq i64 %and, 0
  br i1 %tobool.not, label %if.then, label %return

if.then:                                          ; preds = %entry
  %0 = load ptr, ptr %parsed_files, align 8
  %_M_finish.i = getelementptr inbounds i8, ptr %parsed_files, i64 8
  %1 = load ptr, ptr %_M_finish.i, align 8
  %cmp.i.not7 = icmp eq ptr %0, %1
  br i1 %cmp.i.not7, label %return, label %for.body

for.body:                                         ; preds = %if.then, %for.inc
  %__begin3.sroa.0.08 = phi ptr [ %incdec.ptr.i, %for.inc ], [ %0, %if.then ]
  %2 = load ptr, ptr %__begin3.sroa.0.08, align 8
  %call.i = tail call noundef i32 @_ZNK6google8protobuf14FileDescriptor7editionEv(ptr noundef nonnull align 8 dereferenceable(168) %2)
  %cmp.i3 = icmp eq i32 %call.i, 999
  br i1 %cmp.i3, label %for.cond.preheader.i, label %for.inc

for.cond.preheader.i:                             ; preds = %for.body
  %message_type_count_.i.i = getelementptr inbounds i8, ptr %2, i64 60
  %3 = load i32, ptr %message_type_count_.i.i, align 4
  %cmp25.i = icmp sgt i32 %3, 0
  br i1 %cmp25.i, label %for.body.lr.ph.i, label %for.inc

for.body.lr.ph.i:                                 ; preds = %for.cond.preheader.i
  %message_types_.i.i = getelementptr inbounds i8, ptr %2, i64 96
  %4 = load ptr, ptr %message_types_.i.i, align 8
  %wide.trip.count.i = zext nneg i32 %3 to i64
  br label %for.body.i

for.cond.i:                                       ; preds = %for.body.i
  %indvars.iv.next.i = add nuw nsw i64 %indvars.iv.i, 1
  %exitcond.not.i = icmp eq i64 %indvars.iv.next.i, %wide.trip.count.i
  br i1 %exitcond.not.i, label %for.inc, label %for.body.i, !llvm.loop !225

for.body.i:                                       ; preds = %for.cond.i, %for.body.lr.ph.i
  %indvars.iv.i = phi i64 [ 0, %for.body.lr.ph.i ], [ %indvars.iv.next.i, %for.cond.i ]
  %add.ptr.i.i = getelementptr inbounds %"class.google::protobuf::Descriptor", ptr %4, i64 %indvars.iv.i
  %call4.i = tail call fastcc noundef zeroext i1 @_ZN6google8protobuf8compiler12_GLOBAL__N_122ContainsProto3OptionalEPKNS0_10DescriptorE(ptr noundef %add.ptr.i.i)
  br i1 %call4.i, label %if.then8, label %for.cond.i

if.then8:                                         ; preds = %for.body.i
  %name_.i = getelementptr inbounds i8, ptr %2, i64 8
  %5 = load ptr, ptr %name_.i, align 8
  %call10 = tail call noundef nonnull align 8 dereferenceable(8) ptr @_ZStlsIcSt11char_traitsIcESaIcEERSt13basic_ostreamIT_T0_ES7_RKNSt7__cxx1112basic_stringIS4_S5_T1_EE(ptr noundef nonnull align 8 dereferenceable(8) @_ZSt4cerr, ptr noundef nonnull align 8 dereferenceable(32) %5)
  %call11 = tail call noundef nonnull align 8 dereferenceable(8) ptr @_ZStlsISt11char_traitsIcEERSt13basic_ostreamIcT_ES5_PKc(ptr noundef nonnull align 8 dereferenceable(8) %call10, ptr noundef nonnull @.str.131)
  %call12 = tail call noundef nonnull align 8 dereferenceable(8) ptr @_ZStlsIcSt11char_traitsIcESaIcEERSt13basic_ostreamIT_T0_ES7_RKNSt7__cxx1112basic_stringIS4_S5_T1_EE(ptr noundef nonnull align 8 dereferenceable(8) %call11, ptr noundef nonnull align 8 dereferenceable(32) %codegen_name)
  %call13 = tail call noundef nonnull align 8 dereferenceable(8) ptr @_ZStlsISt11char_traitsIcEERSt13basic_ostreamIcT_ES5_PKc(ptr noundef nonnull align 8 dereferenceable(8) %call12, ptr noundef nonnull @.str.132)
  %call14 = tail call noundef nonnull align 8 dereferenceable(8) ptr @_ZNSolsEPFRSoS_E(ptr noundef nonnull align 8 dereferenceable(8) %call13, ptr noundef nonnull @_ZSt4endlIcSt11char_traitsIcEERSt13basic_ostreamIT_T0_ES6_)
  br label %return

for.inc:                                          ; preds = %for.cond.i, %for.body, %for.cond.preheader.i
  %incdec.ptr.i = getelementptr inbounds i8, ptr %__begin3.sroa.0.08, i64 8
  %cmp.i.not = icmp eq ptr %incdec.ptr.i, %1
  br i1 %cmp.i.not, label %return, label %for.body

return:                                           ; preds = %for.inc, %if.then, %entry, %if.then8
  %retval.0 = phi i1 [ false, %if.then8 ], [ true, %entry ], [ true, %if.then ], [ true, %for.inc ]
  ret i1 %retval.0
}